target datalayout = "e-m:e-p270:32:32-p271:32:32-p272:64:64-i64:64-i128:128-f80:128-n8:16:32:64-S128"
target triple = "x86_64-pc-linux-gnu"

%"class.google::protobuf::internal::ParseContext" = type { %"class.google::protobuf::internal::EpsCopyInputStream", i32, i32, %"struct.google::protobuf::internal::ParseContext::Data" }
%"class.google::protobuf::internal::EpsCopyInputStream" = type { ptr, ptr, ptr, i32, i32, ptr, [32 x i8], i64, i32, i32 }
%"struct.google::protobuf::internal::ParseContext::Data" = type { ptr, ptr, ptr }

@_ZN6google8protobuf2io16CodedInputStream24default_recursion_limit_E = external global i32, align 4

; Function Attrs: mustprogress uwtable
define linkonce_odr hidden noundef zeroext i1 @_ZNK6google8protobuf11MessageLite23IsInitializedWithErrorsEv(ptr noundef nonnull align 8 dereferenceable(16) %0) #4 comdat align 2 {
  %2 = alloca i1, align 1
  %3 = alloca ptr, align 8
  store ptr %0, ptr %3, align 8, !tbaa !3
  %4 = load ptr, ptr %3, align 8
  %5 = load ptr, ptr %4, align 8, !tbaa !12
  %6 = getelementptr inbounds ptr, ptr %5, i64 5
  %7 = load ptr, ptr %6, align 8
  %8 = call noundef zeroext i1 %7(ptr noundef nonnull align 8 dereferenceable(16) %4)
  br i1 %8, label %9, label %10

9:                                                ; preds = %1
  store i1 true, ptr %2, align 1
  br label %11

10:                                               ; preds = %1
  call void @_ZNK6google8protobuf11MessageLite29LogInitializationErrorMessageEv(ptr noundef nonnull align 8 dereferenceable(16) %4)
  store i1 false, ptr %2, align 1
  br label %11

11:                                               ; preds = %10, %9
  %12 = load i1, ptr %2, align 1
  ret i1 %12
}

; Function Attrs: inlinehint mustprogress nounwind uwtable
define linkonce_odr hidden void @_ZN6google8protobuf8internal12ParseContext4DataC2Ev(ptr noundef nonnull align 8 dereferenceable(24) %0) unnamed_addr #9 comdat align 2 {
  %2 = alloca ptr, align 8
  store ptr %0, ptr %2, align 8, !tbaa !231
  %3 = load ptr, ptr %2, align 8
  %4 = getelementptr inbounds nuw %"struct.google::protobuf::internal::ParseContext::Data", ptr %3, i32 0, i32 0
  store ptr null, ptr %4, align 8, !tbaa !72
  %5 = getelementptr inbounds nuw %"struct.google::protobuf::internal::ParseContext::Data", ptr %3, i32 0, i32 1
  store ptr null, ptr %5, align 8, !tbaa !73
  %6 = getelementptr inbounds nuw %"struct.google::protobuf::internal::ParseContext::Data", ptr %3, i32 0, i32 2
  store ptr null, ptr %6, align 8, !tbaa !233
  ret void
}

; Function Attrs: mustprogress nounwind uwtable
define linkonce_odr hidden void @_ZN6google8protobuf8internal18EpsCopyInputStreamC2Eb(ptr noundef nonnull align 8 dereferenceable(88) %0, i1 noundef zeroext %1) unnamed_addr #6 comdat align 2 {
  %3 = alloca ptr, align 8
  %4 = alloca i8, align 1
  store ptr %0, ptr %3, align 8, !tbaa !39
  %5 = zext i1 %1 to i8
  store i8 %5, ptr %4, align 1, !tbaa !18
  %6 = load ptr, ptr %3, align 8
  %7 = getelementptr inbounds nuw %"class.google::protobuf::internal::EpsCopyInputStream", ptr %6, i32 0, i32 5
  store ptr null, ptr %7, align 8, !tbaa !151
  %8 = getelementptr inbounds nuw %"class.google::protobuf::internal::EpsCopyInputStream", ptr %6, i32 0, i32 6
  %9 = getelementptr inbounds i8, ptr %8, i64 32
  br label %10

10:                                               ; preds = %10, %2
  %11 = phi ptr [ %8, %2 ], [ %12, %10 ]
  store i8 0, ptr %11, align 1, !tbaa !173
  %12 = getelementptr inbounds i8, ptr %11, i64 1
  %13 = icmp eq ptr %12, %9
  br i1 %13, label %14, label %10

14:                                               ; preds = %10
  %15 = getelementptr inbounds nuw %"class.google::protobuf::internal::EpsCopyInputStream", ptr %6, i32 0, i32 7
  %16 = load i8, ptr %4, align 1, !tbaa !18, !range !25, !noundef !26
  %17 = trunc i8 %16 to i1
  %18 = select i1 %17, i32 1, i32 0
  %19 = zext i32 %18 to i64
  store i64 %19, ptr %15, align 8, !tbaa !230
  %20 = getelementptr inbounds nuw %"class.google::protobuf::internal::EpsCopyInputStream", ptr %6, i32 0, i32 8
  store i32 0, ptr %20, align 8, !tbaa !41
  %21 = getelementptr inbounds nuw %"class.google::protobuf::internal::EpsCopyInputStream", ptr %6, i32 0, i32 9
  store i32 2147483647, ptr %21, align 4, !tbaa !152
  ret void
}

; Function Attrs: inlinehint mustprogress uwtable
define internal noundef zeroext i1 @_ZN6google8protobuf12_GLOBAL__N_118CheckFieldPresenceERKNS0_8internal12ParseContextERKNS0_11MessageLiteENS6_10ParseFlagsE(ptr noundef nonnull align 8 dereferenceable(120) %0, ptr noundef nonnull align 8 dereferenceable(16) %1, i32 noundef %2) #8 {
  %4 = alloca i1, align 1
  %5 = alloca ptr, align 8
  %6 = alloca ptr, align 8
  %7 = alloca i32, align 4
  store ptr %0, ptr %5, align 8, !tbaa !16
  store ptr %1, ptr %6, align 8, !tbaa !3
  store i32 %2, ptr %7, align 4, !tbaa !8
  %8 = load i32, ptr %7, align 4, !tbaa !8
  %9 = and i32 %8, 2
  %10 = icmp ne i32 %9, 0
  %11 = zext i1 %10 to i64
  %12 = call i64 @llvm.expect.i64(i64 %11, i64 0)
  %13 = icmp ne i64 %12, 0
  br i1 %13, label %14, label %15

14:                                               ; preds = %3
  store i1 true, ptr %4, align 1
  br label %18

15:                                               ; preds = %3
  %16 = load ptr, ptr %6, align 8, !tbaa !3
  %17 = call noundef zeroext i1 @_ZNK6google8protobuf11MessageLite23IsInitializedWithErrorsEv(ptr noundef nonnull align 8 dereferenceable(16) %16)
  store i1 %17, ptr %4, align 1
  br label %18

18:                                               ; preds = %15, %14
  %19 = load i1, ptr %4, align 1
  ret i1 %19
}

; Function Attrs: mustprogress nounwind uwtable
define linkonce_odr hidden noundef zeroext i1 @_ZNK6google8protobuf8internal18EpsCopyInputStream18EndedAtEndOfStreamEv(ptr noundef nonnull align 8 dereferenceable(88) %0) #6 comdat align 2 {
  %2 = alloca ptr, align 8
  store ptr %0, ptr %2, align 8, !tbaa !39
  %3 = load ptr, ptr %2, align 8
  %4 = getelementptr inbounds nuw %"class.google::protobuf::internal::EpsCopyInputStream", ptr %3, i32 0, i32 8
  %5 = load i32, ptr %4, align 8, !tbaa !41
  %6 = icmp eq i32 %5, 1
  ret i1 %6
}

; Function Attrs: mustprogress uwtable
define linkonce_odr hidden void @_ZN6google8protobuf8internal12ParseContextC2IJRPNS0_2io19ZeroCopyInputStreamEEEEibPPKcDpOT_(ptr noundef nonnull align 8 dereferenceable(120) %0, i32 noundef %1, i1 noundef zeroext %2, ptr noundef %3, ptr noundef nonnull align 8 dereferenceable(8) %4) unnamed_addr #4 comdat align 2 {
  %6 = alloca ptr, align 8
  %7 = alloca i32, align 4
  %8 = alloca i8, align 1
  %9 = alloca ptr, align 8
  %10 = alloca ptr, align 8
  store ptr %0, ptr %6, align 8, !tbaa !16
  store i32 %1, ptr %7, align 4, !tbaa !14
  %11 = zext i1 %2 to i8
  store i8 %11, ptr %8, align 1, !tbaa !18
  store ptr %3, ptr %9, align 8, !tbaa !20
  store ptr %4, ptr %10, align 8, !tbaa !43
  %12 = load ptr, ptr %6, align 8
  %13 = load i8, ptr %8, align 1, !tbaa !18, !range !25, !noundef !26
  %14 = trunc i8 %13 to i1
  call void @_ZN6google8protobuf8internal18EpsCopyInputStreamC2Eb(ptr noundef nonnull align 8 dereferenceable(88) %12, i1 noundef zeroext %14)
  %15 = getelementptr inbounds nuw %"class.google::protobuf::internal::ParseContext", ptr %12, i32 0, i32 1
  %16 = load i32, ptr %7, align 4, !tbaa !14
  store i32 %16, ptr %15, align 8, !tbaa !27
  %17 = getelementptr inbounds nuw %"class.google::protobuf::internal::ParseContext", ptr %12, i32 0, i32 2
  store i32 -2147483648, ptr %17, align 4, !tbaa !36
  %18 = getelementptr inbounds nuw %"class.google::protobuf::internal::ParseContext", ptr %12, i32 0, i32 3
  call void @_ZN6google8protobuf8internal12ParseContext4DataC2Ev(ptr noundef nonnull align 8 dereferenceable(24) %18) #3
  %19 = load ptr, ptr %10, align 8, !tbaa !43
  %20 = load ptr, ptr %19, align 8, !tbaa !42
  %21 = call noundef ptr @_ZN6google8protobuf8internal18EpsCopyInputStream8InitFromEPNS0_2io19ZeroCopyInputStreamE(ptr noundef nonnull align 8 dereferenceable(88) %12, ptr noundef %20)
  %22 = load ptr, ptr %9, align 8, !tbaa !20
  store ptr %21, ptr %22, align 8, !tbaa !10
  ret void
}

; Function Attrs: mustprogress nounwind uwtable
define linkonce_odr hidden noundef i32 @_ZN6google8protobuf2io16CodedInputStream24GetDefaultRecursionLimitEv() #6 comdat align 2 {
  %1 = load i32, ptr @_ZN6google8protobuf2io16CodedInputStream24default_recursion_limit_E, align 4, !tbaa !14
  ret i32 %1
}

; Function Attrs: mustprogress uwtable
define weak_odr hidden noundef zeroext i1 @_ZN6google8protobuf8internal13MergeFromImplILb0EEEbPNS0_2io19ZeroCopyInputStreamEPNS0_11MessageLiteENS6_10ParseFlagsE(ptr noundef %0, ptr noundef %1, i32 noundef %2) #4 comdat {
  %4 = alloca i1, align 1
  %5 = alloca ptr, align 8
  %6 = alloca ptr, align 8
  %7 = alloca i32, align 4
  %8 = alloca ptr, align 8
  %9 = alloca %"class.google::protobuf::internal::ParseContext", align 8
  %10 = alloca i32, align 4
  store ptr %0, ptr %5, align 8, !tbaa !42
  store ptr %1, ptr %6, align 8, !tbaa !3
  store i32 %2, ptr %7, align 4, !tbaa !8
  call void @llvm.lifetime.start.p0(i64 8, ptr %8) #3
  call void @llvm.lifetime.start.p0(i64 120, ptr %9) #3
  %11 = call noundef i32 @_ZN6google8protobuf2io16CodedInputStream24GetDefaultRecursionLimitEv()
  call void @_ZN6google8protobuf8internal12ParseContextC2IJRPNS0_2io19ZeroCopyInputStreamEEEEibPPKcDpOT_(ptr noundef nonnull align 8 dereferenceable(120) %9, i32 noundef %11, i1 noundef zeroext false, ptr noundef %8, ptr noundef nonnull align 8 dereferenceable(8) %5)
  %12 = load ptr, ptr %6, align 8, !tbaa !3
  %13 = load ptr, ptr %8, align 8, !tbaa !10
  %14 = load ptr, ptr %12, align 8, !tbaa !12
  %15 = getelementptr inbounds ptr, ptr %14, i64 10
  %16 = load ptr, ptr %15, align 8
  %17 = call noundef ptr %16(ptr noundef nonnull align 8 dereferenceable(16) %12, ptr noundef %13, ptr noundef %9)
  store ptr %17, ptr %8, align 8, !tbaa !10
  %18 = load ptr, ptr %8, align 8, !tbaa !10
  %19 = icmp ne ptr %18, null
  br i1 %19, label %20, label %22

20:                                               ; preds = %3
  %21 = call noundef zeroext i1 @_ZNK6google8protobuf8internal18EpsCopyInputStream18EndedAtEndOfStreamEv(ptr noundef nonnull align 8 dereferenceable(88) %9)
  br label %22

22:                                               ; preds = %20, %3
  %23 = phi i1 [ false, %3 ], [ %21, %20 ]
  %24 = zext i1 %23 to i64
  %25 = call i64 @llvm.expect.i64(i64 %24, i64 1)
  %26 = icmp ne i64 %25, 0
  br i1 %26, label %27, label %31

27:                                               ; preds = %22
  %28 = load ptr, ptr %6, align 8, !tbaa !3
  %29 = load i32, ptr %7, align 4, !tbaa !8
  %30 = call noundef zeroext i1 @_ZN6google8protobuf12_GLOBAL__N_118CheckFieldPresenceERKNS0_8internal12ParseContextERKNS0_11MessageLiteENS6_10ParseFlagsE(ptr noundef nonnull align 8 dereferenceable(120) %9, ptr noundef nonnull align 8 dereferenceable(16) %28, i32 noundef %29)
  store i1 %30, ptr %4, align 1
  store i32 1, ptr %10, align 4
  br label %32

31:                                               ; preds = %22
  store i1 false, ptr %4, align 1
  store i32 1, ptr %10, align 4
  br label %32

32:                                               ; preds = %31, %27
  call void @llvm.lifetime.end.p0(i64 120, ptr %9) #3
  call void @llvm.lifetime.end.p0(i64 8, ptr %8) #3
  %33 = load i1, ptr %4, align 1
  ret i1 %33
}

; Function Attrs: mustprogress uwtable
define linkonce_odr hidden noundef zeroext i1 @_ZN6google8protobuf11MessageLite9ParseFromILNS1_10ParseFlagsE1EPNS0_2io19ZeroCopyInputStreamEEEbRKT0_(ptr noundef nonnull align 8 dereferenceable(16) %0, ptr noundef nonnull align 8 dereferenceable(8) %1) #4 comdat align 2 {
  %3 = alloca ptr, align 8
  %4 = alloca ptr, align 8
  %5 = alloca i8, align 1
  store ptr %0, ptr %3, align 8, !tbaa !3
  store ptr %1, ptr %4, align 8, !tbaa !43
  %6 = load ptr, ptr %3, align 8
  %7 = load ptr, ptr %6, align 8, !tbaa !12
  %8 = getelementptr inbounds ptr, ptr %7, i64 4
  %9 = load ptr, ptr %8, align 8
  call void %9(ptr noundef nonnull align 8 dereferenceable(16) %6)
  call void @llvm.lifetime.start.p0(i64 1, ptr %5) #3
  store i8 0, ptr %5, align 1, !tbaa !18
  %10 = load ptr, ptr %4, align 8, !tbaa !43
  %11 = load ptr, ptr %10, align 8, !tbaa !42
  %12 = call noundef zeroext i1 @_ZN6google8protobuf8internal13MergeFromImplILb0EEEbPNS0_2io19ZeroCopyInputStreamEPNS0_11MessageLiteENS6_10ParseFlagsE(ptr noundef %11, ptr noundef %6, i32 noundef 1)
  call void @llvm.lifetime.end.p0(i64 1, ptr %5) #3
  ret i1 %12
}

; Function Attrs: mustprogress uwtable
define hidden noundef zeroext i1 @_ZN6google8protobuf11MessageLite23ParseFromZeroCopyStreamEPNS0_2io19ZeroCopyInputStreamE(ptr noundef nonnull align 8 dereferenceable(16) %0, ptr noundef %1) #4 align 2 {
  %3 = alloca ptr, align 8
  %4 = alloca ptr, align 8
  store ptr %0, ptr %3, align 8, !tbaa !3
  store ptr %1, ptr %4, align 8, !tbaa !42
  %5 = load ptr, ptr %3, align 8
  %6 = call noundef zeroext i1 @_ZN6google8protobuf11MessageLite9ParseFromILNS1_10ParseFlagsE1EPNS0_2io19ZeroCopyInputStreamEEEbRKT0_(ptr noundef nonnull align 8 dereferenceable(16) %5, ptr noundef nonnull align 8 dereferenceable(8) %4)
  ret i1 %6
}